(dp0
S'test'
p1
(dp2
S'surprise/S071_001_00000012.png'
p3
I5
sS'happy/S065_004_00000026.png'
p4
I3
sS'happy/S124_007_00000023.png'
p5
I3
sS'surprise/S090_002_00000011.png'
p6
I5
sS'fear/S138_001_00000010.png'
p7
I2
sS'disgust/S058_006_00000016.png'
p8
I1
sS'disgust/S096_003_00000010.png'
p9
I1
sS'disgust/S062_005_00000027.png'
p10
I1
sS'anger/S014_003_00000030.png'
p11
I0
sS'disgust/S124_006_00000009.png'
p12
I1
sS'happy/S070_003_00000015.png'
p13
I3
sS'surprise/S124_001_00000012.png'
p14
I5
sS'disgust/S102_009_00000013.png'
p15
I1
sS'surprise/S100_002_00000015.png'
p16
I5
sS'anger/S127_010_00000017.png'
p17
I0
sS'sadness/S125_001_00000013.png'
p18
I4
sS'surprise/S084_001_00000010.png'
p19
I5
sS'surprise/S131_001_00000016.png'
p20
I5
sS'surprise/S022_001_00000030.png'
p21
I5
sS'sadness/S113_003_00000015.png'
p22
I4
sS'surprise/S111_001_00000014.png'
p23
I5
sS'sadness/S130_009_00000017.png'
p24
I4
sS'happy/S066_003_00000011.png'
p25
I3
sS'sadness/S505_006_00000018.png'
p26
I4
sS'disgust/S035_005_00000018.png'
p27
I1
sS'disgust/S032_005_00000016.png'
p28
I1
sS'surprise/S082_001_00000013.png'
p29
I5
sS'happy/S070_003_00000017.png'
p30
I3
sS'surprise/S119_001_00000010.png'
p31
I5
sS'surprise/S064_001_00000010.png'
p32
I5
sS'anger/S136_005_00000010.png'
p33
I0
sS'surprise/S099_001_00000012.png'
p34
I5
sS'happy/S034_005_00000009.png'
p35
I3
sS'happy/S125_005_00000012.png'
p36
I3
sS'anger/S055_004_00000026.png'
p37
I0
sS'disgust/S079_002_00000012.png'
p38
I1
sS'disgust/S054_004_00000022.png'
p39
I1
sS'surprise/S042_001_00000017.png'
p40
I5
sS'surprise/S052_001_00000014.png'
p41
I5
sS'happy/S135_012_00000018.png'
p42
I3
sS'fear/S074_001_00000020.png'
p43
I2
sS'happy/S072_006_00000021.png'
p44
I3
sS'anger/S058_005_00000008.png'
p45
I0
sS'anger/S010_004_00000019.png'
p46
I0
sS'happy/S130_013_00000014.png'
p47
I3
sS'surprise/S055_001_00000011.png'
p48
I5
sS'happy/S127_004_00000014.png'
p49
I3
sS'surprise/S073_001_00000012.png'
p50
I5
sS'anger/S112_005_00000016.png'
p51
I0
sS'disgust/S079_002_00000010.png'
p52
I1
sS'happy/S091_003_00000019.png'
p53
I3
sS'surprise/S102_002_00000017.png'
p54
I5
sS'anger/S112_005_00000015.png'
p55
I0
sS'happy/S050_006_00000021.png'
p56
I3
sS'anger/S109_003_00000015.png'
p57
I0
sS'sadness/S138_007_00000011.png'
p58
I4
sS'surprise/S089_001_00000016.png'
p59
I5
sS'fear/S119_003_00000023.png'
p60
I2
sS'happy/S109_006_00000014.png'
p61
I3
sS'surprise/S100_002_00000013.png'
p62
I5
sS'anger/S999_001_00000016.png'
p63
I0
sS'surprise/S125_007_00000008.png'
p64
I5
sS'fear/S999_003_00000054.png'
p65
I2
sS'disgust/S062_005_00000028.png'
p66
I1
sS'disgust/S088_004_00000018.png'
p67
I1
sS'sadness/S503_006_00000020.png'
p68
I4
sS'surprise/S096_001_00000006.png'
p69
I5
sS'anger/S133_003_00000045.png'
p70
I0
sS'fear/S102_003_00000015.png'
p71
I2
sS'happy/S133_010_00000014.png'
p72
I3
sS'happy/S096_004_00000011.png'
p73
I3
sS'disgust/S106_004_00000006.png'
p74
I1
sS'surprise/S127_001_00000017.png'
p75
I5
sS'anger/S066_005_00000010.png'
p76
I0
sS'sadness/S506_006_00000041.png'
p77
I4
sS'happy/S097_006_00000018.png'
p78
I3
sS'happy/S114_006_00000023.png'
p79
I3
sS'happy/S138_005_00000014.png'
p80
I3
sS'surprise/S117_001_00000013.png'
p81
I5
sS'disgust/S045_004_00000013.png'
p82
I1
sS'disgust/S075_005_00000011.png'
p83
I1
sS'happy/S125_005_00000013.png'
p84
I3
sS'disgust/S085_004_00000017.png'
p85
I1
sS'disgust/S075_005_00000012.png'
p86
I1
sS'surprise/S117_001_00000014.png'
p87
I5
sS'disgust/S116_006_00000005.png'
p88
I1
sS'surprise/S133_009_00000006.png'
p89
I5
sS'happy/S106_006_00000011.png'
p90
I3
sS'happy/S083_003_00000018.png'
p91
I3
sS'happy/S079_004_00000025.png'
p92
I3
sS'surprise/S115_001_00000008.png'
p93
I5
sS'surprise/S070_002_00000016.png'
p94
I5
sS'happy/S076_006_00000017.png'
p95
I3
sS'anger/S058_005_00000010.png'
p96
I0
sS'disgust/S080_008_00000007.png'
p97
I1
sS'happy/S138_005_00000016.png'
p98
I3
sS'disgust/S085_004_00000015.png'
p99
I1
sS'disgust/S073_006_00000012.png'
p100
I1
sS'disgust/S085_004_00000016.png'
p101
I1
sS'surprise/S116_001_00000012.png'
p102
I5
sS'surprise/S133_009_00000005.png'
p103
I5
sS'fear/S102_003_00000014.png'
p104
I2
sS'sadness/S506_006_00000040.png'
p105
I4
sS'sadness/S131_003_00000022.png'
p106
I4
sS'fear/S124_003_00000010.png'
p107
I2
sS'anger/S136_005_00000009.png'
p108
I0
sS'surprise/S064_001_00000011.png'
p109
I5
sS'sadness/S046_001_00000024.png'
p110
I4
sS'surprise/S044_001_00000022.png'
p111
I5
sS'disgust/S078_007_00000013.png'
p112
I1
sS'disgust/S081_008_00000011.png'
p113
I1
sS'sadness/S026_002_00000016.png'
p114
I4
sS'surprise/S066_002_00000021.png'
p115
I5
sS'sadness/S071_002_00000018.png'
p116
I4
sS'disgust/S106_004_00000007.png'
p117
I1
sS'surprise/S114_001_00000018.png'
p118
I5
sS'surprise/S138_004_00000013.png'
p119
I5
sS'anger/S503_001_00000071.png'
p120
I0
sS'disgust/S109_005_00000014.png'
p121
I1
sS'happy/S070_003_00000016.png'
p122
I3
sS'disgust/S011_005_00000019.png'
p123
I1
sS'surprise/S032_001_00000021.png'
p124
I5
sS'happy/S095_007_00000019.png'
p125
I3
sS'sadness/S138_007_00000009.png'
p126
I4
sS'fear/S065_002_00000021.png'
p127
I2
sS'anger/S071_004_00000026.png'
p128
I0
sS'disgust/S061_004_00000022.png'
p129
I1
sS'anger/S130_007_00000018.png'
p130
I0
sS'surprise/S107_001_00000009.png'
p131
I5
sS'anger/S100_005_00000022.png'
p132
I0
sS'disgust/S129_011_00000016.png'
p133
I1
sS'surprise/S011_001_00000015.png'
p134
I5
sS'surprise/S052_001_00000013.png'
p135
I5
sS'happy/S035_006_00000016.png'
p136
I3
sS'fear/S124_003_00000011.png'
p137
I2
sS'surprise/S068_003_00000012.png'
p138
I5
sS'happy/S026_006_00000013.png'
p139
I3
sS'surprise/S073_001_00000011.png'
p140
I5
sS'happy/S132_006_00000022.png'
p141
I3
sS'disgust/S044_006_00000019.png'
p142
I1
sS'happy/S106_006_00000009.png'
p143
I3
sS'disgust/S052_006_00000011.png'
p144
I1
sS'happy/S074_005_00000043.png'
p145
I3
sS'disgust/S075_005_00000010.png'
p146
I1
sS'happy/S125_005_00000011.png'
p147
I3
sS'happy/S108_008_00000013.png'
p148
I3
sS'sadness/S504_006_00000016.png'
p149
I4
sS'surprise/S068_003_00000014.png'
p150
I5
sS'happy/S061_002_00000013.png'
p151
I3
sS'surprise/S089_001_00000014.png'
p152
I5
sS'surprise/S032_001_00000022.png'
p153
I5
sS'disgust/S134_008_00000011.png'
p154
I1
sS'happy/S011_006_00000012.png'
p155
I3
sS'happy/S116_007_00000015.png'
p156
I3
sS'happy/S056_004_00000018.png'
p157
I3
sS'disgust/S107_005_00000011.png'
p158
I1
sS'surprise/S069_002_00000012.png'
p159
I5
sS'disgust/S051_003_00000018.png'
p160
I1
sS'surprise/S067_002_00000014.png'
p161
I5
sS'anger/S119_008_00000017.png'
p162
I0
sS'sadness/S503_006_00000019.png'
p163
I4
sS'happy/S075_006_00000023.png'
p164
I3
sS'anger/S119_008_00000016.png'
p165
I0
sS'anger/S117_006_00000010.png'
p166
I0
sS'disgust/S082_007_00000009.png'
p167
I1
sS'disgust/S125_008_00000010.png'
p168
I1
sS'surprise/S086_001_00000019.png'
p169
I5
sS'surprise/S119_001_00000009.png'
p170
I5
sS'disgust/S105_008_00000010.png'
p171
I1
sS'happy/S098_004_00000015.png'
p172
I3
sS'disgust/S069_003_00000009.png'
p173
I1
sS'sadness/S137_005_00000026.png'
p174
I4
sS'surprise/S059_001_00000016.png'
p175
I5
sS'fear/S506_004_00000036.png'
p176
I2
sS'anger/S087_007_00000015.png'
p177
I0
sS'surprise/S092_001_00000016.png'
p178
I5
sS'surprise/S085_003_00000012.png'
p179
I5
sS'happy/S061_002_00000014.png'
p180
I3
sS'sadness/S115_004_00000016.png'
p181
I4
sS'disgust/S125_008_00000008.png'
p182
I1
sS'surprise/S099_001_00000013.png'
p183
I5
sS'fear/S062_001_00000015.png'
p184
I2
sS'happy/S129_012_00000010.png'
p185
I3
sS'surprise/S096_001_00000005.png'
p186
I5
sS'anger/S026_003_00000014.png'
p187
I0
sS'surprise/S111_001_00000013.png'
p188
I5
sS'disgust/S077_006_00000013.png'
p189
I1
sS'fear/S125_006_00000021.png'
p190
I2
sS'anger/S501_001_00000065.png'
p191
I0
sS'anger/S126_008_00000028.png'
p192
I0
sS'surprise/S088_001_00000017.png'
p193
I5
sS'surprise/S094_001_00000010.png'
p194
I5
sS'anger/S133_003_00000047.png'
p195
I0
sS'happy/S056_004_00000019.png'
p196
I3
sS'anger/S126_008_00000029.png'
p197
I0
sS'surprise/S075_002_00000012.png'
p198
I5
sS'happy/S086_002_00000013.png'
p199
I3
sS'anger/S072_005_00000017.png'
p200
I0
sS'sadness/S080_005_00000013.png'
p201
I4
sS'happy/S136_006_00000018.png'
p202
I3
sS'happy/S100_006_00000016.png'
p203
I3
sS'surprise/S064_001_00000012.png'
p204
I5
sS'happy/S034_005_00000010.png'
p205
I3
sS'surprise/S055_001_00000010.png'
p206
I5
sS'happy/S137_011_00000020.png'
p207
I3
sS'happy/S078_004_00000027.png'
p208
I3
sS'happy/S083_003_00000017.png'
p209
I3
sS'disgust/S070_005_00000015.png'
p210
I1
sS'fear/S504_004_00000015.png'
p211
I2
sS'surprise/S101_002_00000019.png'
p212
I5
sS'anger/S071_004_00000027.png'
p213
I0
sS'happy/S044_003_00000012.png'
p214
I3
sS'surprise/S078_001_00000031.png'
p215
I5
sS'anger/S066_005_00000009.png'
p216
I0
sS'anger/S113_008_00000023.png'
p217
I0
sS'anger/S111_006_00000008.png'
p218
I0
sS'fear/S117_003_00000012.png'
p219
I2
sS'sadness/S108_005_00000020.png'
p220
I4
sS'disgust/S044_006_00000018.png'
p221
I1
sS'surprise/S060_003_00000017.png'
p222
I5
sS'fear/S065_002_00000022.png'
p223
I2
sS'anger/S129_006_00000008.png'
p224
I0
sS'surprise/S137_001_00000013.png'
p225
I5
sS'fear/S032_004_00000013.png'
p226
I2
sS'happy/S075_006_00000025.png'
p227
I3
sS'disgust/S111_007_00000014.png'
p228
I1
sS'fear/S132_003_00000021.png'
p229
I2
sS'anger/S503_001_00000070.png'
p230
I0
sS'surprise/S124_001_00000013.png'
p231
I5
sS'fear/S117_003_00000014.png'
p232
I2
sS'fear/S054_002_00000014.png'
p233
I2
sS'sadness/S113_003_00000013.png'
p234
I4
sS'disgust/S058_006_00000017.png'
p235
I1
sS'sadness/S125_001_00000014.png'
p236
I4
ssS'train'
p237
(dp238
S'surprise/S076_001_00000016.png'
p239
I5
sS'happy/S053_004_00000024.png'
p240
I3
sS'disgust/S070_005_00000014.png'
p241
I1
sS'happy/S014_005_00000016.png'
p242
I3
sS'fear/S119_003_00000022.png'
p243
I2
sS'surprise/S080_001_00000016.png'
p244
I5
sS'anger/S032_003_00000015.png'
p245
I0
sS'happy/S109_006_00000013.png'
p246
I3
sS'surprise/S115_001_00000007.png'
p247
I5
sS'surprise/S077_001_00000027.png'
p248
I5
sS'happy/S114_006_00000021.png'
p249
I3
sS'sadness/S106_002_00000015.png'
p250
I4
sS'happy/S135_012_00000020.png'
p251
I3
sS'sadness/S501_006_00000039.png'
p252
I4
sS'disgust/S032_005_00000015.png'
p253
I1
sS'disgust/S011_005_00000020.png'
p254
I1
sS'surprise/S111_001_00000012.png'
p255
I5
sS'disgust/S098_003_00000011.png'
p256
I1
sS'surprise/S080_001_00000017.png'
p257
I5
sS'anger/S010_004_00000018.png'
p258
I0
sS'sadness/S046_001_00000025.png'
p259
I4
sS'fear/S062_001_00000016.png'
p260
I2
sS'disgust/S099_007_00000010.png'
p261
I1
sS'anger/S042_004_00000019.png'
p262
I0
sS'fear/S506_004_00000038.png'
p263
I2
sS'surprise/S130_001_00000018.png'
p264
I5
sS'anger/S100_005_00000021.png'
p265
I0
sS'fear/S050_001_00000017.png'
p266
I2
sS'anger/S501_001_00000067.png'
p267
I0
sS'fear/S501_004_00000054.png'
p268
I2
sS'surprise/S079_001_00000010.png'
p269
I5
sS'disgust/S108_006_00000019.png'
p270
I1
sS'fear/S011_003_00000014.png'
p271
I2
sS'sadness/S113_003_00000014.png'
p272
I4
sS'surprise/S095_001_00000016.png'
p273
I5
sS'surprise/S067_002_00000013.png'
p274
I5
sS'happy/S052_004_00000033.png'
p275
I3
sS'surprise/S110_001_00000012.png'
p276
I5
sS'sadness/S026_002_00000015.png'
p277
I4
sS'disgust/S051_003_00000017.png'
p278
I1
sS'disgust/S124_006_00000011.png'
p279
I1
sS'happy/S137_011_00000019.png'
p280
I3
sS'happy/S069_004_00000015.png'
p281
I3
sS'surprise/S135_001_00000038.png'
p282
I5
sS'sadness/S501_006_00000041.png'
p283
I4
sS'anger/S072_005_00000019.png'
p284
I0
sS'anger/S117_006_00000008.png'
p285
I0
sS'fear/S011_003_00000013.png'
p286
I2
sS'surprise/S124_001_00000014.png'
p287
I5
sS'anger/S129_006_00000009.png'
p288
I0
sS'happy/S065_004_00000027.png'
p289
I3
sS'happy/S091_003_00000020.png'
p290
I3
sS'surprise/S132_008_00000010.png'
p291
I5
sS'happy/S071_005_00000021.png'
p292
I3
sS'happy/S108_008_00000012.png'
p293
I3
sS'anger/S502_001_00000015.png'
p294
I0
sS'happy/S128_011_00000014.png'
p295
I3
sS'surprise/S119_001_00000011.png'
p296
I5
sS'disgust/S044_006_00000017.png'
p297
I1
sS'anger/S034_003_00000027.png'
p298
I0
sS'happy/S076_006_00000018.png'
p299
I3
sS'happy/S086_002_00000015.png'
p300
I3
sS'sadness/S042_002_00000014.png'
p301
I4
sS'surprise/S102_002_00000016.png'
p302
I5
sS'surprise/S078_001_00000033.png'
p303
I5
sS'surprise/S092_001_00000015.png'
p304
I5
sS'fear/S501_004_00000056.png'
p305
I2
sS'surprise/S085_003_00000011.png'
p306
I5
sS'sadness/S064_004_00000013.png'
p307
I4
sS'sadness/S081_002_00000023.png'
p308
I4
sS'disgust/S045_004_00000015.png'
p309
I1
sS'sadness/S108_005_00000021.png'
p310
I4
sS'disgust/S056_002_00000010.png'
p311
I1
sS'surprise/S136_001_00000018.png'
p312
I5
sS'happy/S056_004_00000020.png'
p313
I3
sS'disgust/S069_003_00000011.png'
p314
I1
sS'sadness/S095_010_00000012.png'
p315
I4
sS'happy/S055_005_00000044.png'
p316
I3
sS'happy/S136_006_00000019.png'
p317
I3
sS'sadness/S064_004_00000014.png'
p318
I4
sS'happy/S064_003_00000024.png'
p319
I3
sS'surprise/S115_001_00000006.png'
p320
I5
sS'surprise/S034_001_00000029.png'
p321
I5
sS'surprise/S073_001_00000013.png'
p322
I5
sS'fear/S999_003_00000053.png'
p323
I2
sS'anger/S133_003_00000046.png'
p324
I0
sS'surprise/S114_001_00000017.png'
p325
I5
sS'disgust/S005_001_00000009.png'
p326
I1
sS'happy/S010_006_00000015.png'
p327
I3
sS'disgust/S060_005_00000020.png'
p328
I1
sS'happy/S052_004_00000032.png'
p329
I3
sS'anger/S028_001_00000022.png'
p330
I0
sS'fear/S011_003_00000012.png'
p331
I2
sS'surprise/S060_003_00000016.png'
p332
I5
sS'disgust/S062_005_00000029.png'
p333
I1
sS'surprise/S110_001_00000013.png'
p334
I5
sS'happy/S115_008_00000017.png'
p335
I3
sS'surprise/S082_001_00000014.png'
p336
I5
sS'happy/S044_003_00000014.png'
p337
I3
sS'happy/S133_010_00000013.png'
p338
I3
sS'surprise/S081_001_00000018.png'
p339
I5
sS'surprise/S051_002_00000017.png'
p340
I5
sS'surprise/S132_008_00000008.png'
p341
I5
sS'anger/S011_004_00000021.png'
p342
I0
sS'surprise/S095_001_00000015.png'
p343
I5
sS'surprise/S055_001_00000012.png'
p344
I5
sS'disgust/S067_006_00000010.png'
p345
I1
sS'disgust/S052_006_00000013.png'
p346
I1
sS'anger/S126_008_00000027.png'
p347
I0
sS'happy/S085_002_00000013.png'
p348
I3
sS'fear/S055_006_00000007.png'
p349
I2
sS'sadness/S011_002_00000022.png'
p350
I4
sS'disgust/S106_004_00000008.png'
p351
I1
sS'sadness/S080_005_00000011.png'
p352
I4
sS'happy/S050_006_00000023.png'
p353
I3
sS'happy/S064_003_00000023.png'
p354
I3
sS'happy/S106_006_00000010.png'
p355
I3
sS'sadness/S046_001_00000023.png'
p356
I4
sS'surprise/S014_001_00000028.png'
p357
I5
sS'disgust/S074_004_00000018.png'
p358
I1
sS'surprise/S131_001_00000015.png'
p359
I5
sS'happy/S060_002_00000024.png'
p360
I3
sS'surprise/S099_001_00000014.png'
p361
I5
sS'happy/S074_005_00000042.png'
p362
I3
sS'disgust/S077_006_00000014.png'
p363
I1
sS'happy/S064_003_00000025.png'
p364
I3
sS'fear/S119_003_00000024.png'
p365
I2
sS'surprise/S087_001_00000011.png'
p366
I5
sS'fear/S502_004_00000051.png'
p367
I2
sS'fear/S084_002_00000023.png'
p368
I2
sS'surprise/S059_001_00000018.png'
p369
I5
sS'anger/S089_003_00000036.png'
p370
I0
sS'disgust/S071_006_00000012.png'
p371
I1
sS'happy/S069_004_00000017.png'
p372
I3
sS'surprise/S097_001_00000021.png'
p373
I5
sS'anger/S127_010_00000016.png'
p374
I0
sS'surprise/S090_002_00000009.png'
p375
I5
sS'sadness/S503_006_00000018.png'
p376
I4
sS'happy/S055_005_00000045.png'
p377
I3
sS'sadness/S136_003_00000014.png'
p378
I4
sS'happy/S100_006_00000014.png'
p379
I3
sS'anger/S032_003_00000017.png'
p380
I0
sS'fear/S124_003_00000009.png'
p381
I2
sS'disgust/S080_008_00000009.png'
p382
I1
sS'anger/S134_003_00000009.png'
p383
I0
sS'disgust/S082_007_00000010.png'
p384
I1
sS'disgust/S054_004_00000023.png'
p385
I1
sS'disgust/S077_006_00000012.png'
p386
I1
sS'anger/S029_001_00000018.png'
p387
I0
sS'happy/S089_002_00000019.png'
p388
I3
sS'disgust/S105_008_00000009.png'
p389
I1
sS'happy/S099_004_00000013.png'
p390
I3
sS'happy/S129_012_00000009.png'
p391
I3
sS'surprise/S061_001_00000011.png'
p392
I5
sS'anger/S504_001_00000021.png'
p393
I0
sS'happy/S037_006_00000021.png'
p394
I3
sS'surprise/S122_001_00000011.png'
p395
I5
sS'disgust/S128_004_00000011.png'
p396
I1
sS'sadness/S130_009_00000018.png'
p397
I4
sS'disgust/S057_003_00000014.png'
p398
I1
sS'sadness/S132_002_00000018.png'
p399
I4
sS'sadness/S095_010_00000014.png'
p400
I4
sS'surprise/S065_003_00000020.png'
p401
I5
sS'anger/S022_005_00000030.png'
p402
I0
sS'surprise/S079_001_00000012.png'
p403
I5
sS'disgust/S068_005_00000021.png'
p404
I1
sS'happy/S011_006_00000013.png'
p405
I3
sS'surprise/S126_004_00000011.png'
p406
I5
sS'happy/S057_006_00000033.png'
p407
I3
sS'surprise/S035_001_00000013.png'
p408
I5
sS'anger/S134_003_00000010.png'
p409
I0
sS'surprise/S136_001_00000017.png'
p410
I5
sS'happy/S083_003_00000019.png'
p411
I3
sS'fear/S062_001_00000017.png'
p412
I2
sS'anger/S042_004_00000018.png'
p413
I0
sS'sadness/S106_002_00000016.png'
p414
I4
sS'anger/S087_007_00000014.png'
p415
I0
sS'anger/S100_005_00000023.png'
p416
I0
sS'happy/S011_006_00000011.png'
p417
I3
sS'fear/S084_002_00000021.png'
p418
I2
sS'happy/S042_006_00000015.png'
p419
I3
sS'sadness/S014_002_00000014.png'
p420
I4
sS'anger/S504_001_00000022.png'
p421
I0
sS'sadness/S066_004_00000008.png'
p422
I4
sS'disgust/S046_004_00000015.png'
p423
I1
sS'anger/S032_003_00000016.png'
p424
I0
sS'fear/S502_004_00000050.png'
p425
I2
sS'surprise/S046_002_00000004.png'
p426
I5
sS'fear/S117_003_00000013.png'
p427
I2
sS'sadness/S132_002_00000016.png'
p428
I4
sS'surprise/S069_002_00000014.png'
p429
I5
sS'happy/S095_007_00000020.png'
p430
I3
sS'anger/S055_004_00000028.png'
p431
I0
sS'surprise/S053_001_00000023.png'
p432
I5
sS'disgust/S134_008_00000012.png'
p433
I1
sS'anger/S090_007_00000014.png'
p434
I0
sS'disgust/S097_004_00000028.png'
p435
I1
sS'disgust/S097_004_00000030.png'
p436
I1
sS'disgust/S081_008_00000010.png'
p437
I1
sS'happy/S091_003_00000021.png'
p438
I3
sS'fear/S091_001_00000015.png'
p439
I2
sS'disgust/S005_001_00000011.png'
p440
I1
sS'disgust/S130_012_00000009.png'
p441
I1
sS'happy/S063_002_00000022.png'
p442
I3
sS'anger/S502_001_00000014.png'
p443
I0
sS'anger/S092_003_00000013.png'
p444
I0
sS'sadness/S136_003_00000013.png'
p445
I4
sS'happy/S076_006_00000019.png'
p446
I3
sS'surprise/S056_003_00000010.png'
p447
I5
sS'happy/S116_007_00000016.png'
p448
I3
sS'anger/S014_003_00000028.png'
p449
I0
sS'surprise/S075_002_00000014.png'
p450
I5
sS'happy/S087_005_00000012.png'
p451
I3
sS'surprise/S037_001_00000018.png'
p452
I5
sS'fear/S068_004_00000009.png'
p453
I2
sS'sadness/S093_001_00000018.png'
p454
I4
sS'disgust/S076_005_00000011.png'
p455
I1
sS'anger/S045_005_00000028.png'
p456
I0
sS'disgust/S109_005_00000013.png'
p457
I1
sS'disgust/S081_008_00000009.png'
p458
I1
sS'surprise/S081_001_00000017.png'
p459
I5
sS'surprise/S059_001_00000017.png'
p460
I5
sS'surprise/S057_001_00000019.png'
p461
I5
sS'sadness/S081_002_00000024.png'
p462
I4
sS'happy/S092_004_00000022.png'
p463
I3
sS'surprise/S010_002_00000014.png'
p464
I5
sS'happy/S132_006_00000021.png'
p465
I3
sS'disgust/S073_006_00000013.png'
p466
I1
sS'fear/S999_003_00000055.png'
p467
I2
sS'disgust/S128_004_00000013.png'
p468
I1
sS'fear/S504_004_00000013.png'
p469
I2
sS'happy/S094_004_00000011.png'
p470
I3
sS'disgust/S131_010_00000017.png'
p471
I1
sS'surprise/S010_002_00000012.png'
p472
I5
sS'happy/S062_004_00000023.png'
p473
I3
sS'surprise/S051_002_00000019.png'
p474
I5
sS'surprise/S136_001_00000019.png'
p475
I5
sS'sadness/S504_006_00000018.png'
p476
I4
sS'happy/S137_011_00000018.png'
p477
I3
sS'surprise/S082_001_00000015.png'
p478
I5
sS'happy/S089_002_00000020.png'
p479
I3
sS'surprise/S011_001_00000014.png'
p480
I5
sS'disgust/S068_005_00000019.png'
p481
I1
sS'disgust/S022_006_00000016.png'
p482
I1
sS'surprise/S046_002_00000005.png'
p483
I5
sS'fear/S091_001_00000013.png'
p484
I2
sS'happy/S034_005_00000008.png'
p485
I3
sS'disgust/S132_005_00000015.png'
p486
I1
sS'happy/S085_002_00000012.png'
p487
I3
sS'happy/S130_013_00000013.png'
p488
I3
sS'disgust/S129_011_00000018.png'
p489
I1
sS'sadness/S137_005_00000025.png'
p490
I4
sS'surprise/S127_001_00000016.png'
p491
I5
sS'surprise/S130_001_00000016.png'
p492
I5
sS'anger/S130_007_00000020.png'
p493
I0
sS'disgust/S060_005_00000021.png'
p494
I1
sS'surprise/S131_001_00000014.png'
p495
I5
sS'surprise/S071_001_00000011.png'
p496
I5
sS'happy/S115_008_00000016.png'
p497
I3
sS'sadness/S137_005_00000027.png'
p498
I4
sS'surprise/S107_001_00000008.png'
p499
I5
sS'sadness/S071_002_00000020.png'
p500
I4
sS'surprise/S074_002_00000016.png'
p501
I5
sS'fear/S032_004_00000014.png'
p502
I2
sS'happy/S109_006_00000015.png'
p503
I3
sS'happy/S032_006_00000015.png'
p504
I3
sS'anger/S136_005_00000008.png'
p505
I0
sS'sadness/S125_001_00000012.png'
p506
I4
sS'anger/S087_007_00000016.png'
p507
I0
sS'surprise/S129_002_00000011.png'
p508
I5
sS'fear/S032_004_00000012.png'
p509
I2
sS'surprise/S035_001_00000014.png'
p510
I5
sS'disgust/S067_006_00000009.png'
p511
I1
sS'happy/S026_006_00000011.png'
p512
I3
sS'disgust/S055_003_00000009.png'
p513
I1
sS'surprise/S070_002_00000014.png'
p514
I5
sS'disgust/S088_004_00000020.png'
p515
I1
sS'anger/S111_006_00000010.png'
p516
I0
sS'disgust/S071_006_00000014.png'
p517
I1
sS'happy/S010_006_00000014.png'
p518
I3
sS'anger/S082_005_00000016.png'
p519
I0
sS'surprise/S063_001_00000012.png'
p520
I5
sS'surprise/S094_001_00000009.png'
p521
I5
sS'disgust/S011_005_00000018.png'
p522
I1
sS'disgust/S131_010_00000018.png'
p523
I1
sS'anger/S130_007_00000019.png'
p524
I0
sS'happy/S067_005_00000020.png'
p525
I3
sS'disgust/S087_004_00000010.png'
p526
I1
sS'fear/S065_002_00000020.png'
p527
I2
sS'surprise/S096_001_00000007.png'
p528
I5
sS'happy/S096_004_00000010.png'
p529
I3
sS'happy/S094_004_00000012.png'
p530
I3
sS'disgust/S057_003_00000015.png'
p531
I1
sS'surprise/S026_001_00000014.png'
p532
I5
sS'surprise/S022_001_00000029.png'
p533
I5
sS'disgust/S046_004_00000017.png'
p534
I1
sS'disgust/S065_005_00000007.png'
p535
I1
sS'anger/S092_003_00000014.png'
p536
I0
sS'happy/S062_004_00000024.png'
p537
I3
sS'anger/S022_005_00000032.png'
p538
I0
sS'surprise/S137_001_00000012.png'
p539
I5
sS'surprise/S058_001_00000020.png'
p540
I5
sS'anger/S028_001_00000023.png'
p541
I0
sS'sadness/S505_006_00000019.png'
p542
I4
sS'happy/S131_006_00000020.png'
p543
I3
sS'surprise/S084_001_00000009.png'
p544
I5
sS'anger/S082_005_00000017.png'
p545
I0
sS'happy/S078_004_00000025.png'
p546
I3
sS'happy/S134_004_00000013.png'
p547
I3
sS'surprise/S107_001_00000010.png'
p548
I5
sS'surprise/S122_001_00000010.png'
p549
I5
sS'anger/S503_001_00000069.png'
p550
I0
sS'happy/S085_002_00000014.png'
p551
I3
sS'surprise/S054_003_00000007.png'
p552
I5
sS'disgust/S052_006_00000012.png'
p553
I1
sS'surprise/S084_001_00000008.png'
p554
I5
sS'happy/S134_004_00000015.png'
p555
I3
sS'happy/S097_006_00000017.png'
p556
I3
sS'surprise/S122_001_00000012.png'
p557
I5
sS'anger/S071_004_00000028.png'
p558
I0
sS'surprise/S101_002_00000018.png'
p559
I5
sS'fear/S102_003_00000016.png'
p560
I2
sS'disgust/S035_005_00000019.png'
p561
I1
sS'disgust/S078_007_00000011.png'
p562
I1
sS'surprise/S092_001_00000017.png'
p563
I5
sS'fear/S132_003_00000023.png'
p564
I2
sS'happy/S079_004_00000026.png'
p565
I3
sS'fear/S059_002_00000017.png'
p566
I2
sS'happy/S130_013_00000015.png'
p567
I3
sS'surprise/S050_002_00000016.png'
p568
I5
sS'fear/S054_002_00000013.png'
p569
I2
sS'disgust/S098_003_00000012.png'
p570
I1
sS'sadness/S071_002_00000019.png'
p571
I4
sS'fear/S055_006_00000008.png'
p572
I2
sS'sadness/S080_005_00000012.png'
p573
I4
sS'anger/S058_005_00000009.png'
p574
I0
sS'sadness/S064_004_00000012.png'
p575
I4
sS'disgust/S102_009_00000015.png'
p576
I1
sS'surprise/S088_001_00000016.png'
p577
I5
sS'happy/S127_004_00000015.png'
p578
I3
sS'surprise/S110_001_00000011.png'
p579
I5
sS'anger/S999_001_00000017.png'
p580
I0
sS'happy/S057_006_00000031.png'
p581
I3
sS'fear/S046_003_00000015.png'
p582
I2
sS'surprise/S074_002_00000014.png'
p583
I5
sS'happy/S131_006_00000022.png'
p584
I3
sS'anger/S028_001_00000024.png'
p585
I0
sS'happy/S128_011_00000015.png'
p586
I3
sS'disgust/S078_007_00000012.png'
p587
I1
sS'anger/S037_003_00000021.png'
p588
I0
sS'surprise/S086_001_00000017.png'
p589
I5
sS'happy/S086_002_00000014.png'
p590
I3
sS'disgust/S087_004_00000012.png'
p591
I1
sS'disgust/S005_001_00000010.png'
p592
I1
sS'disgust/S090_006_00000009.png'
p593
I1
sS'sadness/S014_002_00000016.png'
p594
I4
sS'surprise/S090_002_00000010.png'
p595
I5
sS'disgust/S061_004_00000020.png'
p596
I1
sS'surprise/S026_001_00000013.png'
p597
I5
sS'sadness/S506_006_00000042.png'
p598
I4
sS'happy/S044_003_00000013.png'
p599
I3
sS'surprise/S113_001_00000010.png'
p600
I5
sS'surprise/S034_001_00000027.png'
p601
I5
sS'happy/S060_002_00000026.png'
p602
I3
sS'sadness/S115_004_00000017.png'
p603
I4
sS'anger/S010_004_00000017.png'
p604
I0
sS'disgust/S045_004_00000014.png'
p605
I1
sS'anger/S112_005_00000017.png'
p606
I0
sS'surprise/S060_003_00000018.png'
p607
I5
sS'anger/S082_005_00000015.png'
p608
I0
sS'disgust/S105_008_00000008.png'
p609
I1
sS'happy/S094_004_00000010.png'
p610
I3
sS'fear/S059_002_00000015.png'
p611
I2
sS'happy/S093_004_00000016.png'
p612
I3
sS'happy/S096_004_00000009.png'
p613
I3
sS'surprise/S085_003_00000013.png'
p614
I5
sS'anger/S050_004_00000020.png'
p615
I0
sS'surprise/S113_001_00000012.png'
p616
I5
sS'sadness/S108_005_00000022.png'
p617
I4
sS'surprise/S088_001_00000015.png'
p618
I5
sS'surprise/S076_001_00000017.png'
p619
I5
sS'surprise/S116_001_00000013.png'
p620
I5
sS'happy/S089_002_00000021.png'
p621
I3
sS'fear/S138_001_00000012.png'
p622
I2
sS'happy/S068_002_00000014.png'
p623
I3
sS'disgust/S090_006_00000011.png'
p624
I1
sS'anger/S506_001_00000039.png'
p625
I0
sS'disgust/S107_005_00000010.png'
p626
I1
sS'fear/S068_004_00000010.png'
p627
I2
sS'disgust/S095_006_00000013.png'
p628
I1
sS'disgust/S124_006_00000010.png'
p629
I1
sS'disgust/S069_003_00000010.png'
p630
I1
sS'sadness/S095_010_00000013.png'
p631
I4
sS'happy/S133_010_00000012.png'
p632
I3
sS'disgust/S068_005_00000020.png'
p633
I1
sS'fear/S501_004_00000055.png'
p634
I2
sS'happy/S099_004_00000014.png'
p635
I3
sS'sadness/S115_004_00000015.png'
p636
I4
sS'happy/S026_006_00000012.png'
p637
I3
sS'surprise/S079_001_00000011.png'
p638
I5
sS'happy/S074_005_00000041.png'
p639
I3
sS'disgust/S080_008_00000008.png'
p640
I1
sS'surprise/S051_002_00000018.png'
p641
I5
sS'disgust/S087_004_00000011.png'
p642
I1
sS'disgust/S128_004_00000012.png'
p643
I1
sS'happy/S014_005_00000017.png'
p644
I3
sS'anger/S501_001_00000066.png'
p645
I0
sS'disgust/S098_003_00000013.png'
p646
I1
sS'happy/S099_004_00000015.png'
p647
I3
sS'happy/S079_004_00000024.png'
p648
I3
sS'surprise/S042_001_00000019.png'
p649
I5
sS'anger/S034_003_00000026.png'
p650
I0
sS'happy/S060_002_00000025.png'
p651
I3
sS'sadness/S042_002_00000015.png'
p652
I4
sS'disgust/S088_004_00000019.png'
p653
I1
sS'surprise/S129_002_00000010.png'
p654
I5
sS'sadness/S066_004_00000010.png'
p655
I4
sS'fear/S125_006_00000022.png'
p656
I2
sS'happy/S037_006_00000019.png'
p657
I3
sS'sadness/S138_007_00000010.png'
p658
I4
sS'surprise/S035_001_00000015.png'
p659
I5
sS'anger/S129_006_00000010.png'
p660
I0
sS'happy/S092_004_00000023.png'
p661
I3
sS'surprise/S014_001_00000027.png'
p662
I5
sS'surprise/S050_002_00000017.png'
p663
I5
sS'happy/S124_007_00000022.png'
p664
I3
sS'happy/S087_005_00000010.png'
p665
I3
sS'surprise/S089_001_00000015.png'
p666
I5
sS'sadness/S131_003_00000024.png'
p667
I4
sS'happy/S128_011_00000016.png'
p668
I3
sS'surprise/S135_001_00000039.png'
p669
I5
sS'surprise/S065_003_00000021.png'
p670
I5
sS'disgust/S082_007_00000008.png'
p671
I1
sS'fear/S502_004_00000052.png'
p672
I2
sS'sadness/S026_002_00000014.png'
p673
I4
sS'surprise/S075_002_00000013.png'
p674
I5
sS'happy/S042_006_00000016.png'
p675
I3
sS'surprise/S114_001_00000016.png'
p676
I5
sS'anger/S029_001_00000019.png'
p677
I0
sS'happy/S035_006_00000017.png'
p678
I3
sS'surprise/S087_001_00000010.png'
p679
I5
sS'sadness/S081_002_00000022.png'
p680
I4
sS'happy/S132_006_00000023.png'
p681
I3
sS'happy/S078_004_00000026.png'
p682
I3
sS'disgust/S095_006_00000012.png'
p683
I1
sS'disgust/S116_006_00000006.png'
p684
I1
sS'happy/S124_007_00000024.png'
p685
I3
sS'sadness/S505_006_00000017.png'
p686
I4
sS'happy/S075_006_00000024.png'
p687
I3
sS'happy/S097_006_00000019.png'
p688
I3
sS'disgust/S056_002_00000009.png'
p689
I1
sS'surprise/S053_001_00000021.png'
p690
I5
sS'happy/S072_006_00000022.png'
p691
I3
sS'disgust/S102_009_00000014.png'
p692
I1
sS'anger/S109_003_00000017.png'
p693
I0
sS'sadness/S093_001_00000020.png'
p694
I4
sS'surprise/S125_007_00000009.png'
p695
I5
sS'disgust/S111_007_00000013.png'
p696
I1
sS'disgust/S076_005_00000012.png'
p697
I1
sS'happy/S053_004_00000022.png'
p698
I3
sS'surprise/S066_002_00000022.png'
p699
I5
sS'surprise/S137_001_00000014.png'
p700
I5
sS'surprise/S071_001_00000013.png'
p701
I5
sS'disgust/S022_006_00000017.png'
p702
I1
sS'anger/S119_008_00000018.png'
p703
I0
sS'surprise/S062_002_00000015.png'
p704
I5
sS'surprise/S044_001_00000023.png'
p705
I5
sS'anger/S113_008_00000021.png'
p706
I0
sS'surprise/S117_001_00000012.png'
p707
I5
sS'surprise/S126_004_00000010.png'
p708
I5
sS'sadness/S011_002_00000020.png'
p709
I4
sS'happy/S068_002_00000015.png'
p710
I3
sS'anger/S090_007_00000013.png'
p711
I0
sS'surprise/S100_002_00000014.png'
p712
I5
sS'disgust/S108_006_00000020.png'
p713
I1
sS'surprise/S135_001_00000037.png'
p714
I5
sS'fear/S084_002_00000022.png'
p715
I2
sS'happy/S071_005_00000019.png'
p716
I3
sS'surprise/S097_001_00000020.png'
p717
I5
sS'anger/S134_003_00000011.png'
p718
I0
sS'anger/S067_004_00000023.png'
p719
I0
sS'surprise/S014_001_00000029.png'
p720
I5
sS'disgust/S032_005_00000014.png'
p721
I1
sS'disgust/S035_005_00000017.png'
p722
I1
sS'happy/S115_008_00000015.png'
p723
I3
sS'surprise/S050_002_00000018.png'
p724
I5
sS'surprise/S116_001_00000014.png'
p725
I5
sS'happy/S072_006_00000020.png'
p726
I3
sS'anger/S067_004_00000022.png'
p727
I0
sS'disgust/S022_006_00000015.png'
p728
I1
sS'surprise/S032_001_00000020.png'
p729
I5
sS'happy/S116_007_00000017.png'
p730
I3
sS'disgust/S099_007_00000011.png'
p731
I1
sS'surprise/S057_001_00000017.png'
p732
I5
sS'happy/S053_004_00000023.png'
p733
I3
sS'sadness/S130_009_00000019.png'
p734
I4
sS'surprise/S037_001_00000020.png'
p735
I5
sS'fear/S506_004_00000037.png'
p736
I2
sS'disgust/S130_012_00000010.png'
p737
I1
sS'surprise/S011_001_00000016.png'
p738
I5
sS'surprise/S074_002_00000015.png'
p739
I5
sS'surprise/S063_001_00000013.png'
p740
I5
sS'surprise/S132_008_00000009.png'
p741
I5
sS'happy/S127_004_00000016.png'
p742
I3
sS'anger/S034_003_00000025.png'
p743
I0
sS'sadness/S042_002_00000016.png'
p744
I4
sS'anger/S055_004_00000027.png'
p745
I0
sS'disgust/S079_002_00000011.png'
p746
I1
sS'disgust/S071_006_00000013.png'
p747
I1
sS'surprise/S095_001_00000014.png'
p748
I5
sS'surprise/S138_004_00000012.png'
p749
I5
sS'anger/S037_003_00000020.png'
p750
I0
sS'happy/S065_004_00000028.png'
p751
I3
sS'anger/S117_006_00000009.png'
p752
I0
sS'anger/S050_004_00000019.png'
p753
I0
sS'anger/S075_008_00000010.png'
p754
I0
sS'surprise/S077_001_00000028.png'
p755
I5
sS'anger/S014_003_00000029.png'
p756
I0
sS'happy/S050_006_00000022.png'
p757
I3
sS'sadness/S014_002_00000015.png'
p758
I4
sS'surprise/S037_001_00000019.png'
p759
I5
sS'fear/S068_004_00000008.png'
p760
I2
sS'sadness/S093_001_00000019.png'
p761
I4
sS'surprise/S046_002_00000006.png'
p762
I5
sS'disgust/S125_008_00000009.png'
p763
I1
sS'disgust/S107_005_00000009.png'
p764
I1
sS'surprise/S077_001_00000026.png'
p765
I5
sS'disgust/S076_005_00000010.png'
p766
I1
sS'fear/S125_006_00000020.png'
p767
I2
sS'disgust/S096_003_00000012.png'
p768
I1
sS'anger/S037_003_00000022.png'
p769
I0
sS'sadness/S136_003_00000012.png'
p770
I4
sS'disgust/S065_005_00000006.png'
p771
I1
sS'anger/S506_001_00000040.png'
p772
I0
sS'happy/S067_005_00000022.png'
p773
I3
sS'anger/S089_003_00000034.png'
p774
I0
sS'anger/S111_006_00000009.png'
p775
I0
sS'anger/S502_001_00000016.png'
p776
I0
sS'fear/S091_001_00000014.png'
p777
I2
sS'happy/S098_004_00000013.png'
p778
I3
sS'fear/S046_003_00000014.png'
p779
I2
sS'disgust/S057_003_00000013.png'
p780
I1
sS'surprise/S066_002_00000020.png'
p781
I5
sS'surprise/S053_001_00000022.png'
p782
I5
sS'surprise/S065_003_00000022.png'
p783
I5
sS'happy/S061_002_00000015.png'
p784
I3
sS'disgust/S074_004_00000016.png'
p785
I1
sS'anger/S026_003_00000013.png'
p786
I0
sS'anger/S050_004_00000021.png'
p787
I0
sS'anger/S999_001_00000018.png'
p788
I0
sS'anger/S045_005_00000030.png'
p789
I0
sS'happy/S098_004_00000014.png'
p790
I3
sS'anger/S042_004_00000020.png'
p791
I0
sS'disgust/S090_006_00000010.png'
p792
I1
sS'surprise/S127_001_00000015.png'
p793
I5
sS'disgust/S096_003_00000011.png'
p794
I1
sS'surprise/S138_004_00000011.png'
p795
I5
sS'surprise/S022_001_00000028.png'
p796
I5
sS'surprise/S056_003_00000008.png'
p797
I5
sS'sadness/S504_006_00000017.png'
p798
I4
sS'happy/S068_002_00000013.png'
p799
I3
sS'surprise/S057_001_00000018.png'
p800
I5
sS'happy/S100_006_00000015.png'
p801
I3
sS'surprise/S062_002_00000016.png'
p802
I5
sS'disgust/S099_007_00000012.png'
p803
I1
sS'anger/S506_001_00000038.png'
p804
I0
sS'happy/S055_005_00000043.png'
p805
I3
sS'happy/S114_006_00000022.png'
p806
I3
sS'anger/S109_003_00000016.png'
p807
I0
sS'happy/S035_006_00000018.png'
p808
I3
sS'happy/S108_008_00000011.png'
p809
I3
sS'surprise/S101_002_00000017.png'
p810
I5
sS'fear/S050_001_00000016.png'
p811
I2
sS'happy/S069_004_00000016.png'
p812
I3
sS'anger/S090_007_00000012.png'
p813
I0
sS'sadness/S501_006_00000040.png'
p814
I4
sS'surprise/S094_001_00000008.png'
p815
I5
sS'surprise/S086_001_00000018.png'
p816
I5
sS'disgust/S134_008_00000013.png'
p817
I1
sS'happy/S067_005_00000021.png'
p818
I3
sS'surprise/S010_002_00000013.png'
p819
I5
sS'anger/S045_005_00000029.png'
p820
I0
sS'anger/S072_005_00000018.png'
p821
I0
sS'happy/S087_005_00000011.png'
p822
I3
sS'happy/S071_005_00000020.png'
p823
I3
sS'fear/S055_006_00000006.png'
p824
I2
sS'disgust/S051_003_00000016.png'
p825
I1
sS'surprise/S061_001_00000012.png'
p826
I5
sS'disgust/S097_004_00000029.png'
p827
I1
sS'happy/S093_004_00000014.png'
p828
I3
sS'surprise/S097_001_00000019.png'
p829
I5
sS'surprise/S069_002_00000013.png'
p830
I5
sS'surprise/S076_001_00000015.png'
p831
I5
sS'happy/S066_003_00000012.png'
p832
I3
sS'happy/S063_002_00000021.png'
p833
I3
sS'happy/S032_006_00000016.png'
p834
I3
sS'surprise/S062_002_00000014.png'
p835
I5
sS'surprise/S133_009_00000004.png'
p836
I5
sS'surprise/S061_001_00000010.png'
p837
I5
sS'anger/S022_005_00000031.png'
p838
I0
sS'anger/S127_010_00000018.png'
p839
I0
sS'fear/S074_001_00000018.png'
p840
I2
sS'anger/S066_005_00000011.png'
p841
I0
sS'happy/S037_006_00000020.png'
p842
I3
sS'surprise/S044_001_00000024.png'
p843
I5
sS'disgust/S055_003_00000007.png'
p844
I1
sS'disgust/S054_004_00000024.png'
p845
I1
sS'happy/S057_006_00000032.png'
p846
I3
sS'disgust/S060_005_00000019.png'
p847
I1
sS'surprise/S054_003_00000006.png'
p848
I5
sS'surprise/S078_001_00000032.png'
p849
I5
sS'sadness/S131_003_00000023.png'
p850
I4
sS'surprise/S026_001_00000015.png'
p851
I5
sS'surprise/S058_001_00000019.png'
p852
I5
sS'surprise/S056_003_00000009.png'
p853
I5
sS'anger/S067_004_00000021.png'
p854
I0
sS'happy/S134_004_00000014.png'
p855
I3
sS'disgust/S111_007_00000012.png'
p856
I1
sS'anger/S075_008_00000012.png'
p857
I0
sS'surprise/S042_001_00000018.png'
p858
I5
sS'happy/S010_006_00000013.png'
p859
I3
sS'disgust/S056_002_00000008.png'
p860
I1
sS'happy/S063_002_00000023.png'
p861
I3
sS'happy/S092_004_00000024.png'
p862
I3
sS'anger/S011_004_00000020.png'
p863
I0
sS'anger/S026_003_00000015.png'
p864
I0
sS'sadness/S011_002_00000021.png'
p865
I4
sS'surprise/S054_003_00000005.png'
p866
I5
sS'sadness/S066_004_00000009.png'
p867
I4
sS'surprise/S129_002_00000009.png'
p868
I5
sS'disgust/S109_005_00000012.png'
p869
I1
sS'disgust/S131_010_00000016.png'
p870
I1
sS'surprise/S034_001_00000028.png'
p871
I5
sS'surprise/S130_001_00000017.png'
p872
I5
sS'anger/S011_004_00000019.png'
p873
I0
sS'happy/S062_004_00000022.png'
p874
I3
sS'fear/S504_004_00000014.png'
p875
I2
sS'disgust/S073_006_00000014.png'
p876
I1
sS'happy/S095_007_00000021.png'
p877
I3
sS'fear/S050_001_00000015.png'
p878
I2
sS'surprise/S067_002_00000012.png'
p879
I5
sS'disgust/S130_012_00000011.png'
p880
I1
sS'disgust/S129_011_00000017.png'
p881
I1
sS'anger/S113_008_00000022.png'
p882
I0
sS'disgust/S070_005_00000016.png'
p883
I1
sS'disgust/S132_005_00000016.png'
p884
I1
sS'surprise/S087_001_00000009.png'
p885
I5
sS'sadness/S106_002_00000014.png'
p886
I4
sS'surprise/S080_001_00000018.png'
p887
I5
sS'happy/S129_012_00000011.png'
p888
I3
sS'disgust/S116_006_00000007.png'
p889
I1
sS'happy/S136_006_00000020.png'
p890
I3
sS'disgust/S061_004_00000021.png'
p891
I1
sS'happy/S131_006_00000021.png'
p892
I3
sS'happy/S014_005_00000015.png'
p893
I3
sS'surprise/S058_001_00000018.png'
p894
I5
sS'surprise/S113_001_00000011.png'
p895
I5
sS'anger/S089_003_00000035.png'
p896
I0
sS'fear/S074_001_00000019.png'
p897
I2
sS'anger/S075_008_00000011.png'
p898
I0
sS'anger/S092_003_00000012.png'
p899
I0
sS'disgust/S065_005_00000008.png'
p900
I1
sS'disgust/S058_006_00000018.png'
p901
I1
sS'disgust/S046_004_00000016.png'
p902
I1
sS'fear/S046_003_00000016.png'
p903
I2
sS'happy/S032_006_00000014.png'
p904
I3
sS'fear/S059_002_00000016.png'
p905
I2
sS'surprise/S068_003_00000013.png'
p906
I5
sS'fear/S138_001_00000011.png'
p907
I2
sS'sadness/S132_002_00000017.png'
p908
I4
sS'happy/S066_003_00000010.png'
p909
I3
sS'fear/S132_003_00000022.png'
p910
I2
sS'fear/S054_002_00000015.png'
p911
I2
sS'surprise/S125_007_00000007.png'
p912
I5
sS'anger/S504_001_00000020.png'
p913
I0
sS'disgust/S055_003_00000008.png'
p914
I1
sS'surprise/S070_002_00000015.png'
p915
I5
sS'disgust/S067_006_00000011.png'
p916
I1
sS'anger/S029_001_00000017.png'
p917
I0
sS'surprise/S126_004_00000012.png'
p918
I5
sS'surprise/S063_001_00000011.png'
p919
I5
sS'happy/S042_006_00000017.png'
p920
I3
sS'happy/S093_004_00000015.png'
p921
I3
sS'happy/S135_012_00000019.png'
p922
I3
sS'surprise/S081_001_00000019.png'
p923
I5
sS'happy/S138_005_00000015.png'
p924
I3
sS'surprise/S052_001_00000015.png'
p925
I5
sS'happy/S052_004_00000031.png'
p926
I3
sS'disgust/S074_004_00000017.png'
p927
I1
sS'disgust/S132_005_00000014.png'
p928
I1
sS'disgust/S095_006_00000011.png'
p929
I1
sS'surprise/S102_002_00000018.png'
p930
I5
sS'disgust/S108_006_00000018.png'
p931
I1
ss.